target datalayout = "e-m:e-p270:32:32-p271:32:32-p272:64:64-i64:64-i128:128-f80:128-n8:16:32:64-S128"
target triple = "x86_64-pc-linux-gnu"

@.str.261 = private unnamed_addr constant [4 x i8] c"_%d\00", align 1

; Function Attrs: nounwind uwtable
define internal i32 @append_postfix(ptr noundef %0, i32 noundef %1, i32 noundef %2) #0 {
  %4 = alloca ptr, align 8
  %5 = alloca i32, align 4
  %6 = alloca i32, align 4
  %7 = alloca ptr, align 8
  %8 = alloca [10 x i8], align 1
  store ptr %0, ptr %4, align 8, !tbaa !73
  store i32 %1, ptr %5, align 4, !tbaa !30
  store i32 %2, ptr %6, align 4, !tbaa !30
  call void @llvm.lifetime.start.p0(i64 8, ptr %7) #15
  call void @llvm.lifetime.start.p0(i64 10, ptr %8) #15
  call void @llvm.memset.p0.i64(ptr align 1 %8, i8 0, i64 10, i1 false)
  %9 = load ptr, ptr %4, align 8, !tbaa !73
  %10 = call ptr @strrchr(ptr noundef %9, i32 noundef 46) #16
  store ptr %10, ptr %7, align 8, !tbaa !73
  %11 = load ptr, ptr %7, align 8, !tbaa !73
  %12 = icmp ne ptr %11, null
  br i1 %12, label %13, label %18

13:                                               ; preds = %3
  %14 = getelementptr inbounds [10 x i8], ptr %8, i64 0, i64 0
  %15 = load ptr, ptr %7, align 8, !tbaa !73
  %16 = call i64 @av_strlcpy(ptr noundef %14, ptr noundef %15, i64 noundef 10)
  %17 = load ptr, ptr %7, align 8, !tbaa !73
  store i8 0, ptr %17, align 1, !tbaa !109
  br label %18

18:                                               ; preds = %13, %3
  %19 = load ptr, ptr %4, align 8, !tbaa !73
  %20 = load ptr, ptr %4, align 8, !tbaa !73
  %21 = call i64 @strlen(ptr noundef %20) #16
  %22 = getelementptr inbounds nuw i8, ptr %19, i64 %21
  %23 = load i32, ptr %5, align 4, !tbaa !30
  %24 = sext i32 %23 to i64
  %25 = load ptr, ptr %4, align 8, !tbaa !73
  %26 = call i64 @strlen(ptr noundef %25) #16
  %27 = sub i64 %24, %26
  %28 = load i32, ptr %6, align 4, !tbaa !30
  %29 = call i32 (ptr, i64, ptr, ...) @snprintf(ptr noundef %22, i64 noundef %27, ptr noundef @.str.261, i32 noundef %28) #15
  %30 = getelementptr inbounds [10 x i8], ptr %8, i64 0, i64 0
  %31 = call i64 @strlen(ptr noundef %30) #16
  %32 = icmp ne i64 %31, 0
  br i1 %32, label %33, label %39

33:                                               ; preds = %18
  %34 = load ptr, ptr %4, align 8, !tbaa !73
  %35 = getelementptr inbounds [10 x i8], ptr %8, i64 0, i64 0
  %36 = load i32, ptr %5, align 4, !tbaa !30
  %37 = sext i32 %36 to i64
  %38 = call i64 @av_strlcat(ptr noundef %34, ptr noundef %35, i64 noundef %37)
  br label %39

39:                                               ; preds = %33, %18
  call void @llvm.lifetime.end.p0(i64 10, ptr %8) #15
  call void @llvm.lifetime.end.p0(i64 8, ptr %7) #15
  ret i32 0
}