; Function Attrs: nounwind uwtable
define internal fastcc void @append_postfix(ptr noundef %0, i32 noundef %1, i32 noundef %2) unnamed_addr #0 {
  %4 = alloca [10 x i8], align 1
  call void @llvm.lifetime.start.p0(i64 10, ptr nonnull %4) #17
  call void @llvm.memset.p0.i64(ptr noundef nonnull align 1 dereferenceable(10) %4, i8 0, i64 10, i1 false)
  %5 = tail call ptr @strrchr(ptr noundef nonnull dereferenceable(1) %0, i32 noundef 46) #18
  %.not = icmp eq ptr %5, null
  br i1 %.not, label %8, label %6

6:                                                ; preds = %3
  %7 = call i64 @av_strlcpy(ptr noundef nonnull %4, ptr noundef nonnull %5, i64 noundef 10) #17
  store i8 0, ptr %5, align 1, !tbaa !102
  br label %8

8:                                                ; preds = %6, %3
  %9 = call i64 @strlen(ptr noundef nonnull dereferenceable(1) %0) #18
  %10 = getelementptr inbounds nuw i8, ptr %0, i64 %9
  %11 = sext i32 %1 to i64
  %12 = sub i64 %11, %9
  %13 = call i32 (ptr, i64, ptr, ...) @snprintf(ptr noundef nonnull %10, i64 noundef %12, ptr noundef nonnull @.str.261, i32 noundef %2) #17
  %char0 = load i8, ptr %4, align 1
  %.not10 = icmp eq i8 %char0, 0
  br i1 %.not10, label %16, label %14

14:                                               ; preds = %8
  %15 = call i64 @av_strlcat(ptr noundef nonnull %0, ptr noundef nonnull %4, i64 noundef %11) #17
  br label %16

16:                                               ; preds = %14, %8
  call void @llvm.lifetime.end.p0(i64 10, ptr nonnull %4) #17
  ret void
}